(dp0
I1
I271
sI2
I481
sI3
I338
sI4
I389
sI5
I351
sI6
I379
sI7
I908
sI8
I878
sI9
I388
sI10
I78
sI11
I477
sI12
I460
sI13
I360
sI14
I318
sI15
I105
sI16
I384
sI17
I590
sI18
I834
sI19
I806
sI20
I422
sI21
I339
sI22
I369
sI23
I536
sI24
I414
sI25
I161
sI26
I325
sI27
I527
sI28
I86
sI29
I412
sI30
I387
sI31
I688
sI32
I297
sI33
I333
sI34
I274
sI35
I392
sI36
I542
sI37
I669
sI38
I557
sI39
I683
sI40
I78
sI41
I432
sI42
I330
sI43
I362
sI44
I131
sI45
I477
sI46
I263
sI47
I752
sI48
I336
sI49
I482
sI50
I396
sI51
I396
sI52
I449
sI53
I395
sI54
I609
sI55
I627
sI56
I430
sI57
I270
sI58
I421
sI59
I152
sI60
I393
sI61
I336
sI62
I440
sI63
I521
sI64
I223
sI65
I864
sI66
I505
sI67
I369
sI68
I485
sI69
I984
sI70
I443
sI71
I117
sI72
I137
sI73
I310
sI74
I262
sI75
I290
sI76
I330
sI77
I402
sI78
I524
sI79
I87
sI80
I350
sI81
I447
sI82
I159
sI83
I265
sI84
I461
sI85
I407
sI86
I273
sI87
I224
sI88
I469
sI89
I301
sI90
I316
sI91
I413
sI92
I394
sI93
I454
sI94
I340
sI95
I352
sI96
I483
sI97
I491
sI98
I295
sI99
I552
sI100
I368
sI101
I526
sI102
I499
sI103
I351
sI104
I152
sI105
I564
sI106
I587
sI107
I424
sI108
I171
sI109
I255
sI110
I727
sI111
I759
sI112
I590
sI113
I506
sI114
I315
sI115
I704
sI116
I415
sI117
I842
sI118
I537
sI119
I779
sI120
I563
sI121
I340
sI122
I861
sI123
I257
sI124
I435
sI125
I349
sI126
I291
sI127
I947
sI128
I424
sI129
I658
sI130
I328
sI131
I161
sI132
I329
sI133
I306
sI134
I403
sI135
I596
sI136
I818
sI137
I260
sI138
I258
sI139
I687
sI140
I697
sI141
I398
sI142
I528
sI143
I332
sI144
I441
sI145
I271
sI146
I443
sI147
I198
sI148
I349
sI149
I295
sI150
I366
sI151
I257
sI152
I831
sI153
I856
sI154
I857
sI155
I399
sI156
I153
sI157
I303
sI158
I394
sI159
I190
sI160
I347
sI161
I451
sI162
I235
sI163
I653
sI164
I587
sI165
I725
sI166
I393
sI167
I369
sI168
I446
sI169
I675
sI170
I355
sI171
I321
sI172
I773
sI173
I622
sI174
I249
sI175
I267
sI176
I285
sI177
I661
sI178
I982
sI179
I448
sI180
I428
sI181
I144
sI182
I366
sI183
I814
sI184
I426
sI185
I280
sI186
I843
sI187
I825
sI188
I454
sI189
I467
sI190
I366
sI191
I375
sI192
I403
sI193
I617
sI194
I257
sI195
I685
sI196
I445
sI197
I464
sI198
I767
sI199
I445
sI200
I505
sI201
I411
sI202
I798
sI203
I542
sI204
I443
sI205
I406
sI206
I782
sI207
I508
sI208
I398
sI209
I169
sI210
I322
sI211
I289
sI212
I458
sI213
I95
sI214
I423
sI215
I802
sI216
I324
sI217
I205
sI218
I349
sI219
I685
sI220
I270
sI221
I366
sI222
I264
sI223
I601
sI224
I440
sI225
I459
sI226
I387
sI227
I146
sI228
I507
sI229
I337
sI230
I374
sI231
I370
sI232
I748
sI233
I352
sI234
I425
sI235
I170
sI236
I439
sI237
I410
sI238
I539
sI239
I953
sI240
I278
sI241
I478
sI242
I388
sI243
I482
sI244
I378
sI245
I633
sI246
I637
sI247
I183
sI248
I124
sI249
I463
sI250
I796
sI251
I281
sI252
I864
sI253
I155
sI254
I404
sI255
I190
sI256
I352
sI257
I279
sI258
I477
sI259
I634
sI260
I352
sI261
I591
sI262
I195
sI263
I338
sI264
I458
sI265
I397
sI266
I430
sI267
I470
sI268
I331
sI269
I310
sI270
I244
sI271
I426
sI272
I130
sI273
I302
sI274
I425
sI275
I351
sI276
I458
sI277
I303
sI278
I344
sI279
I246
sI280
I322
sI281
I485
sI282
I377
sI283
I643
sI284
I376
sI285
I342
sI286
I245
sI287
I334
sI288
I926
sI289
I265
sI290
I609
sI291
I466
sI292
I539
sI293
I273
sI294
I307
sI295
I298
sI296
I461
sI297
I465
sI298
I458
sI299
I187
sI300
I435
sI301
I224
sI302
I201
sI303
I539
sI304
I385
sI305
I304
sI306
I312
sI307
I283
sI308
I395
sI309
I435
sI310
I258
sI311
I506
sI312
I891
sI313
I343
sI314
I268
sI315
I399
sI316
I503
sI317
I311
sI318
I461
sI319
I903
sI320
I374
sI321
I476
sI322
I122
sI323
I223
sI324
I320
sI325
I337
sI326
I411
sI327
I451
sI328
I296
sI329
I209
sI330
I700
sI331
I403
sI332
I208
sI333
I971
sI334
I556
sI335
I517
sI336
I462
sI337
I428
sI338
I784
sI339
I898
sI340
I626
sI341
I303
sI342
I322
sI343
I329
sI344
I396
sI345
I321
sI346
I388
sI347
I416
sI348
I378
sI349
I456
sI350
I396
sI351
I227
sI352
I318
sI353
I169
sI354
I776
sI355
I291
sI356
I729
sI357
I349
sI358
I352
sI359
I376
sI360
I532
sI361
I421
sI362
I207
sI363
I110
sI364
I452
sI365
I430
sI366
I700
sI367
I123
sI368
I486
sI369
I589
sI370
I246
sI371
I312
sI372
I434
sI373
I302
sI374
I446
sI375
I308
sI376
I386
sI377
I332
sI378
I300
sI379
I346
sI380
I436
sI381
I146
sI382
I909
sI383
I681
sI384
I241
sI385
I759
sI386
I530
sI387
I344
sI388
I473
sI389
I173
sI390
I457
sI391
I283
sI392
I538
sI393
I395
sI394
I323
sI395
I318
sI396
I484
sI397
I454
sI398
I331
sI399
I480
sI400
I300
sI401
I345
sI402
I718
sI403
I363
sI404
I305
sI405
I147
sI406
I698
sI407
I96
sI408
I323
sI409
I301
sI410
I434
sI411
I389
sI412
I730
sI413
I342
sI414
I125
sI415
I460
sI416
I88
sI417
I436
sI418
I538
sI419
I439
sI420
I439
sI421
I437
sI422
I298
sI423
I362
sI424
I113
sI425
I220
sI426
I206
sI427
I834
sI428
I141
sI429
I375
sI430
I575
sI431
I372
sI432
I169
sI433
I380
sI434
I324
sI435
I307
sI436
I322
sI437
I291
sI438
I550
sI439
I397
sI440
I386
sI441
I503
sI442
I338
sI443
I611
sI444
I219
sI445
I625
sI446
I205
sI447
I144
sI448
I560
sI449
I689
sI450
I234
sI451
I69
sI452
I178
sI453
I400
sI454
I369
sI455
I453
sI456
I462
sI457
I760
sI458
I352
sI459
I465
sI460
I315
sI461
I348
sI462
I484
sI463
I273
sI464
I512
sI465
I267
sI466
I895
sI467
I259
sI468
I311
sI469
I735
sI470
I242
sI471
I355
sI472
I443
sI473
I480
sI474
I340
sI475
I727
sI476
I337
sI477
I376
sI478
I515
sI479
I396
sI480
I391
sI481
I545
sI482
I312
sI483
I441
sI484
I407
sI485
I229
sI486
I378
sI487
I285
sI488
I427
sI489
I741
sI490
I292
sI491
I272
sI492
I527
sI493
I239
sI494
I96
sI495
I353
sI496
I379
sI497
I420
sI498
I393
sI499
I708
sI500
I932
sI501
I399
sI502
I96
sI503
I354
sI504
I663
sI505
I574
sI506
I527
sI507
I261
sI508
I327
sI509
I412
sI510
I563
sI511
I514
sI512
I320
sI513
I366
sI514
I248
sI515
I272
sI516
I240
sI517
I478
sI518
I463
sI519
I579
sI520
I582
sI521
I525
sI522
I331
sI523
I251
sI524
I351
sI525
I331
sI526
I166
sI527
I457
sI528
I782
sI529
I480
sI530
I753
sI531
I851
sI532
I710
sI533
I47
sI534
I61
sI535
I321
sI536
I321
sI537
I458
sI538
I376
sI539
I377
sI540
I508
sI541
I128
sI542
I346
sI543
I311
sI544
I166
sI545
I428
sI546
I352
sI547
I706
sI548
I463
sI549
I355
sI550
I445
sI551
I359
sI552
I385
sI553
I942
sI554
I675
sI555
I712
sI556
I127
sI557
I442
sI558
I860
sI559
I410
sI560
I363
sI561
I449
sI562
I395
sI563
I389
sI564
I376
sI565
I268
sI566
I400
sI567
I128
sI568
I358
sI569
I434
sI570
I367
sI571
I499
sI572
I314
sI573
I135
sI574
I392
sI575
I312
sI576
I614
sI577
I331
sI578
I86
sI579
I471
sI580
I433
sI581
I318
sI582
I379
sI583
I355
sI584
I676
sI585
I297
sI586
I295
sI587
I170
sI588
I813
sI589
I860
sI590
I225
sI591
I400
sI592
I478
sI593
I369
sI594
I574
sI595
I206
sI596
I142
sI597
I161
sI598
I153
sI599
I118
sI600
I170
sI601
I459
sI602
I796
sI603
I342
sI604
I605
sI605
I409
sI606
I515
sI607
I416
sI608
I308
sI609
I102
sI610
I383
sI611
I425
sI612
I707
sI613
I277
sI614
I564
sI615
I375
sI616
I399
sI617
I828
sI618
I152
sI619
I559
sI620
I347
sI621
I340
sI622
I604
sI623
I744
sI624
I342
sI625
I216
sI626
I799
sI627
I719
sI628
I375
sI629
I546
sI630
I436
sI631
I332
sI632
I689
sI633
I207
sI634
I167
sI635
I358
sI636
I708
sI637
I351
sI638
I416
sI639
I466
sI640
I681
sI641
I446
sI642
I277
sI643
I381
sI644
I578
sI645
I319
sI646
I389
sI647
I173
sI648
I353
sI649
I478
sI650
I158
sI651
I781
sI652
I420
sI653
I382
sI654
I349
sI655
I292
sI656
I221
sI657
I193
sI658
I370
sI659
I121
sI660
I416
sI661
I393
sI662
I418
sI663
I392
sI664
I449
sI665
I217
sI666
I366
sI667
I405
sI668
I400
sI669
I374
sI670
I591
sI671
I140
sI672
I632
sI673
I344
sI674
I314
sI675
I699
sI676
I364
sI677
I789
sI678
I476
sI679
I394
sI680
I357
sI681
I527
sI682
I308
sI683
I481
sI684
I722
sI685
I426
sI686
I295
sI687
I548
sI688
I430
sI689
I386
sI690
I752
sI691
I377
sI692
I527
sI693
I499
sI694
I582
sI695
I350
sI696
I160
sI697
I421
sI698
I387
sI699
I577
sI700
I410
sI701
I362
sI702
I306
sI703
I813
sI704
I156
sI705
I145
sI706
I564
sI707
I356
sI708
I366
sI709
I311
sI710
I465
sI711
I380
sI712
I137
sI713
I406
sI714
I379
sI715
I143
sI716
I499
sI717
I371
sI718
I330
sI719
I653
sI720
I813
sI721
I635
sI722
I546
sI723
I727
sI724
I523
sI725
I394
sI726
I307
sI727
I355
sI728
I123
sI729
I418
sI730
I526
sI731
I158
sI732
I310
sI733
I541
sI734
I848
sI735
I451
sI736
I387
sI737
I178
sI738
I82
sI739
I628
sI740
I358
sI741
I826
sI742
I317
sI743
I350
sI744
I362
sI745
I490
sI746
I238
sI747
I646
sI748
I294
sI749
I440
sI750
I951
sI751
I170
sI752
I264
sI753
I307
sI754
I521
sI755
I380
sI756
I422
sI757
I295
sI758
I481
sI759
I341
sI760
I432
sI761
I341
sI762
I342
sI763
I336
sI764
I180
sI765
I558
sI766
I678
sI767
I365
sI768
I443
sI769
I325
sI770
I163
sI771
I431
sI772
I795
sI773
I372
sI774
I412
sI775
I165
sI776
I348
sI777
I369
sI778
I346
sI779
I636
sI780
I741
sI781
I346
sI782
I157
sI783
I369
sI784
I970
sI785
I374
sI786
I439
sI787
I556
sI788
I117
sI789
I552
sI790
I576
sI791
I616
sI792
I651
sI793
I411
sI794
I680
sI795
I368
sI796
I317
sI797
I210
sI798
I193
sI799
I186
sI800
I443
sI801
I99
sI802
I300
sI803
I497
sI804
I591
sI805
I656
sI806
I389
sI807
I260
sI808
I231
sI809
I415
sI810
I425
sI811
I466
sI812
I302
sI813
I378
sI814
I854
sI815
I445
sI816
I523
sI817
I450
sI818
I450
sI819
I344
sI820
I218
sI821
I440
sI822
I292
sI823
I848
sI824
I354
sI825
I582
sI826
I114
sI827
I229
sI828
I237
sI829
I546
sI830
I368
sI831
I752
sI832
I588
sI833
I405
sI834
I338
sI835
I321
sI836
I361
sI837
I174
sI838
I345
sI839
I357
sI840
I762
sI841
I394
sI842
I182
sI843
I661
sI844
I490
sI845
I569
sI846
I394
sI847
I770
sI848
I409
sI849
I427
sI850
I93
sI851
I956
sI852
I403
sI853
I563
sI854
I280
sI855
I144
sI856
I614
sI857
I385
sI858
I588
sI859
I235
sI860
I446
sI861
I221
sI862
I704
sI863
I400
sI864
I466
sI865
I759
sI866
I359
sI867
I457
sI868
I799
sI869
I684
sI870
I386
sI871
I132
sI872
I816
sI873
I376
sI874
I454
sI875
I694
sI876
I316
sI877
I365
sI878
I806
sI879
I346
sI880
I415
sI881
I159
sI882
I587
sI883
I316
sI884
I694
sI885
I471
sI886
I440
sI887
I385
sI888
I342
sI889
I423
sI890
I410
sI891
I288
sI892
I386
sI893
I169
sI894
I397
sI895
I338
sI896
I325
sI897
I527
sI898
I434
sI899
I504
sI900
I334
sI901
I852
sI902
I423
sI903
I426
sI904
I558
sI905
I162
sI906
I686
sI907
I376
sI908
I770
sI909
I352
sI910
I489
sI911
I108
sI912
I344
sI913
I490
sI914
I65
sI915
I831
sI916
I364
sI917
I358
sI918
I484
sI919
I388
sI920
I83
sI921
I570
sI922
I324
sI923
I351
sI924
I424
sI925
I355
sI926
I380
sI927
I684
sI928
I239
sI929
I588
sI930
I379
sI931
I439
sI932
I273
sI933
I383
sI934
I444
sI935
I353
sI936
I424
sI937
I243
sI938
I141
sI939
I365
sI940
I768
sI941
I543
sI942
I439
sI943
I370
sI944
I344
sI945
I545
sI946
I502
sI947
I300
sI948
I663
sI949
I571
sI950
I418
sI951
I390
sI952
I331
sI953
I460
sI954
I727
sI955
I342
sI956
I388
sI957
I551
sI958
I623
sI959
I573
sI960
I339
sI961
I455
sI962
I597
sI963
I676
sI964
I484
sI965
I328
sI966
I69
sI967
I823
sI968
I304
sI969
I452
sI970
I308
sI971
I338
sI972
I251
sI973
I70
sI974
I357
sI975
I345
sI976
I240
sI977
I494
sI978
I716
sI979
I600
sI980
I312
sI981
I372
sI982
I736
sI983
I257
sI984
I338
sI985
I660
sI986
I409
sI987
I400
sI988
I950
sI989
I404
sI990
I101
sI991
I363
sI992
I163
sI993
I489
sI994
I656
sI995
I304
sI996
I344
sI997
I317
sI998
I651
sI999
I368
sI1000
I273
sI1001
I355
sI1002
I366
sI1003
I262
sI1004
I313
sI1005
I627
sI1006
I824
sI1007
I333
sI1008
I113
sI1009
I419
sI1010
I415
sI1011
I338
sI1012
I274
sI1013
I360
sI1014
I639
sI1015
I354
sI1016
I473
sI1017
I319
sI1018
I196
sI1019
I173
sI1020
I555
sI1021
I414
sI1022
I439
sI1023
I353
sI1024
I429
sI1025
I464
sI1026
I324
sI1027
I322
sI1028
I141
sI1029
I364
s.